target datalayout = "e-m:e-p270:32:32-p271:32:32-p272:64:64-i64:64-i128:128-f80:128-n8:16:32:64-S128"
target triple = "x86_64-unknown-linux-gnu"

; Function Attrs: mustprogress uwtable
define hidden noundef zeroext i1 @_ZNK7datalog11rel_context9has_factsEP9func_decl(ptr noundef nonnull align 8 dereferenceable(432) %this, ptr noundef %pred) unnamed_addr #4 align 2 {
entry:
  %this.addr = alloca ptr, align 8
  %pred.addr = alloca ptr, align 8
  %r = alloca ptr, align 8
  store ptr %this, ptr %this.addr, align 8
  store ptr %pred, ptr %pred.addr, align 8
  %this1 = load ptr, ptr %this.addr, align 8
  %0 = load ptr, ptr %pred.addr, align 8
  %vtable = load ptr, ptr %this1, align 8
  %vfn = getelementptr inbounds ptr, ptr %vtable, i64 27
  %1 = load ptr, ptr %vfn, align 8
  %call = call noundef ptr %1(ptr noundef nonnull align 8 dereferenceable(432) %this1, ptr noundef %0)
  store ptr %call, ptr %r, align 8
  %2 = load ptr, ptr %r, align 8
  %tobool = icmp ne ptr %2, null
  br i1 %tobool, label %land.rhs, label %land.end

land.rhs:                                         ; preds = %entry
  %3 = load ptr, ptr %r, align 8
  %vtable2 = load ptr, ptr %3, align 8
  %vfn3 = getelementptr inbounds ptr, ptr %vtable2, i64 3
  %4 = load ptr, ptr %vfn3, align 8
  %call4 = call noundef zeroext i1 %4(ptr noundef nonnull align 8 dereferenceable(28) %3)
  %lnot = xor i1 %call4, true
  br label %land.end

land.end:                                         ; preds = %land.rhs, %entry
  %5 = phi i1 [ false, %entry ], [ %lnot, %land.rhs ]
  ret i1 %5
}