; Function Attrs: mustprogress uwtable
define hidden noundef zeroext i1 @_ZNK7datalog11rel_context9has_factsEP9func_decl(ptr noundef nonnull align 8 dereferenceable(432) %this, ptr noundef %pred) unnamed_addr #3 align 2 {
entry:
  %vtable = load ptr, ptr %this, align 8
  %vfn = getelementptr inbounds i8, ptr %vtable, i64 216
  %0 = load ptr, ptr %vfn, align 8
  %call = tail call noundef ptr %0(ptr noundef nonnull align 8 dereferenceable(432) %this, ptr noundef %pred)
  %tobool.not = icmp eq ptr %call, null
  br i1 %tobool.not, label %land.end, label %land.rhs

land.rhs:                                         ; preds = %entry
  %vtable2 = load ptr, ptr %call, align 8
  %vfn3 = getelementptr inbounds i8, ptr %vtable2, i64 24
  %1 = load ptr, ptr %vfn3, align 8
  %call4 = tail call noundef zeroext i1 %1(ptr noundef nonnull align 8 dereferenceable(28) %call)
  %lnot = xor i1 %call4, true
  br label %land.end

land.end:                                         ; preds = %land.rhs, %entry
  %2 = phi i1 [ false, %entry ], [ %lnot, %land.rhs ]
  ret i1 %2
}